target datalayout = "e-m:e-p270:32:32-p271:32:32-p272:64:64-i64:64-i128:128-f80:128-n8:16:32:64-S128"
target triple = "x86_64-unknown-linux-gnu"

%struct.default_t2uint = type { i8 }
%"class.euf::solve_context_eqs" = type { ptr, ptr, ptr, %class.obj_mark, %class.obj_mark, %class.obj_mark, %class.obj_mark, %class.obj_mark, %class.ptr_vector }
%class.obj_mark = type { %struct.default_t2uint, %class.bit_vector }
%class.bit_vector = type { i32, i32, ptr }
%class.ptr_vector = type { %class.vector }
%class.vector = type { ptr }
%class.svector.43 = type { %class.vector.44 }
%class.vector.44 = type { ptr }
%class.anon = type { ptr, ptr, ptr }
%"struct.std::pair" = type { i8, ptr }
%class.ast = type { i32, i24, i32, i32 }

; Function Attrs: mustprogress nounwind uwtable
define linkonce_odr hidden noundef i32 @_ZN10bit_vector12get_pos_maskEj(i32 noundef %bit_idx) #5 comdat align 2 {
entry:
  %bit_idx.addr = alloca i32, align 4
  store i32 %bit_idx, ptr %bit_idx.addr, align 4
  %0 = load i32, ptr %bit_idx.addr, align 4
  %rem = urem i32 %0, 32
  %shl = shl i32 1, %rem
  ret i32 %shl
}

; Function Attrs: mustprogress nounwind uwtable
define linkonce_odr hidden noundef i32 @_ZNK10bit_vector12get_bit_wordEj(ptr noundef nonnull align 8 dereferenceable(16) %this, i32 noundef %bit_idx) #5 comdat align 2 {
entry:
  %this.addr = alloca ptr, align 8
  %bit_idx.addr = alloca i32, align 4
  store ptr %this, ptr %this.addr, align 8
  store i32 %bit_idx, ptr %bit_idx.addr, align 4
  %this1 = load ptr, ptr %this.addr, align 8
  %m_data = getelementptr inbounds %class.bit_vector, ptr %this1, i32 0, i32 2
  %0 = load ptr, ptr %m_data, align 8
  %1 = load i32, ptr %bit_idx.addr, align 4
  %div = udiv i32 %1, 32
  %idxprom = zext i32 %div to i64
  %arrayidx = getelementptr inbounds i32, ptr %0, i64 %idxprom
  %2 = load i32, ptr %arrayidx, align 4
  ret i32 %2
}

; Function Attrs: mustprogress nounwind uwtable
define linkonce_odr hidden noundef i32 @_ZNK3ast6get_idEv(ptr noundef nonnull align 4 dereferenceable(16) %this) #5 comdat align 2 {
entry:
  %this.addr = alloca ptr, align 8
  store ptr %this, ptr %this.addr, align 8
  %this1 = load ptr, ptr %this.addr, align 8
  %m_id = getelementptr inbounds %class.ast, ptr %this1, i32 0, i32 0
  %0 = load i32, ptr %m_id, align 4
  ret i32 %0
}

; Function Attrs: mustprogress uwtable
define linkonce_odr hidden noundef zeroext i1 @_ZNK10bit_vector3getEj(ptr noundef nonnull align 8 dereferenceable(16) %this, i32 noundef %bit_idx) #4 comdat align 2 {
entry:
  %this.addr = alloca ptr, align 8
  %bit_idx.addr = alloca i32, align 4
  %r = alloca i8, align 1
  store ptr %this, ptr %this.addr, align 8
  store i32 %bit_idx, ptr %bit_idx.addr, align 4
  %this1 = load ptr, ptr %this.addr, align 8
  %0 = load i32, ptr %bit_idx.addr, align 4
  %call = call noundef i32 @_ZNK10bit_vector12get_bit_wordEj(ptr noundef nonnull align 8 dereferenceable(16) %this1, i32 noundef %0)
  %1 = load i32, ptr %bit_idx.addr, align 4
  %call2 = call noundef i32 @_ZN10bit_vector12get_pos_maskEj(i32 noundef %1)
  %and = and i32 %call, %call2
  %cmp = icmp ne i32 %and, 0
  %frombool = zext i1 %cmp to i8
  store i8 %frombool, ptr %r, align 1
  %2 = load i8, ptr %r, align 1
  %tobool = trunc i8 %2 to i1
  ret i1 %tobool
}

; Function Attrs: mustprogress nounwind uwtable
define linkonce_odr hidden noundef i32 @_ZNK10bit_vector4sizeEv(ptr noundef nonnull align 8 dereferenceable(16) %this) #5 comdat align 2 {
entry:
  %this.addr = alloca ptr, align 8
  store ptr %this, ptr %this.addr, align 8
  %this1 = load ptr, ptr %this.addr, align 8
  %m_num_bits = getelementptr inbounds %class.bit_vector, ptr %this1, i32 0, i32 0
  %0 = load i32, ptr %m_num_bits, align 8
  ret i32 %0
}

; Function Attrs: mustprogress nounwind uwtable
define linkonce_odr hidden noundef i32 @_ZNK14default_t2uintI4exprEclERKS0_(ptr noundef nonnull align 1 dereferenceable(1) %this, ptr noundef nonnull align 4 dereferenceable(16) %obj) #5 comdat align 2 {
entry:
  %this.addr = alloca ptr, align 8
  %obj.addr = alloca ptr, align 8
  store ptr %this, ptr %this.addr, align 8
  store ptr %obj, ptr %obj.addr, align 8
  %0 = load ptr, ptr %obj.addr, align 8
  %call = call noundef i32 @_ZNK3ast6get_idEv(ptr noundef nonnull align 4 dereferenceable(16) %0)
  ret i32 %call
}

; Function Attrs: mustprogress nounwind uwtable
define linkonce_odr hidden noundef i32 @_ZNK6vectorISt4pairIbP4exprELb0EjE4sizeEv(ptr noundef nonnull align 8 dereferenceable(8) %this) #5 comdat align 2 {
entry:
  %retval = alloca i32, align 4
  %this.addr = alloca ptr, align 8
  store ptr %this, ptr %this.addr, align 8
  %this1 = load ptr, ptr %this.addr, align 8
  %m_data = getelementptr inbounds %class.vector.44, ptr %this1, i32 0, i32 0
  %0 = load ptr, ptr %m_data, align 8
  %cmp = icmp eq ptr %0, null
  br i1 %cmp, label %if.then, label %if.end

if.then:                                          ; preds = %entry
  store i32 0, ptr %retval, align 4
  br label %return

if.end:                                           ; preds = %entry
  %m_data2 = getelementptr inbounds %class.vector.44, ptr %this1, i32 0, i32 0
  %1 = load ptr, ptr %m_data2, align 8
  %arrayidx = getelementptr inbounds i32, ptr %1, i64 -1
  %2 = load i32, ptr %arrayidx, align 4
  store i32 %2, ptr %retval, align 4
  br label %return

return:                                           ; preds = %if.end, %if.then
  %3 = load i32, ptr %retval, align 4
  ret i32 %3
}

; Function Attrs: mustprogress uwtable
define linkonce_odr hidden noundef zeroext i1 @_ZNK8obj_markI4expr10bit_vector14default_t2uintIS0_EE9is_markedERKS0_(ptr noundef nonnull align 8 dereferenceable(24) %this, ptr noundef nonnull align 4 dereferenceable(16) %obj) #4 comdat align 2 {
entry:
  %this.addr = alloca ptr, align 8
  %obj.addr = alloca ptr, align 8
  %id = alloca i32, align 4
  store ptr %this, ptr %this.addr, align 8
  store ptr %obj, ptr %obj.addr, align 8
  %this1 = load ptr, ptr %this.addr, align 8
  %m_proc = getelementptr inbounds %class.obj_mark, ptr %this1, i32 0, i32 0
  %0 = load ptr, ptr %obj.addr, align 8
  %call = call noundef i32 @_ZNK14default_t2uintI4exprEclERKS0_(ptr noundef nonnull align 1 dereferenceable(1) %m_proc, ptr noundef nonnull align 4 dereferenceable(16) %0)
  store i32 %call, ptr %id, align 4
  %1 = load i32, ptr %id, align 4
  %m_marks = getelementptr inbounds %class.obj_mark, ptr %this1, i32 0, i32 1
  %call2 = call noundef i32 @_ZNK10bit_vector4sizeEv(ptr noundef nonnull align 8 dereferenceable(16) %m_marks)
  %cmp = icmp ult i32 %1, %call2
  br i1 %cmp, label %land.rhs, label %land.end

land.rhs:                                         ; preds = %entry
  %m_marks3 = getelementptr inbounds %class.obj_mark, ptr %this1, i32 0, i32 1
  %2 = load i32, ptr %id, align 4
  %call4 = call noundef zeroext i1 @_ZNK10bit_vector3getEj(ptr noundef nonnull align 8 dereferenceable(16) %m_marks3, i32 noundef %2)
  br label %land.end

land.end:                                         ; preds = %land.rhs, %entry
  %3 = phi i1 [ false, %entry ], [ %call4, %land.rhs ]
  ret i1 %3
}

; Function Attrs: mustprogress uwtable
define internal noundef zeroext i1 @"_ZZN3euf17solve_context_eqs10is_safe_eqEjP4exprbS2_ENK3$_0clERKSt4pairIbS2_E"(ptr noundef nonnull align 8 dereferenceable(24) %this, ptr noundef nonnull align 8 dereferenceable(16) %p) #4 align 2 {
entry:
  %this.addr = alloca ptr, align 8
  %p.addr = alloca ptr, align 8
  store ptr %this, ptr %this.addr, align 8
  store ptr %p, ptr %p.addr, align 8
  %this1 = load ptr, ptr %this.addr, align 8
  %0 = getelementptr inbounds %class.anon, ptr %this1, i32 0, i32 0
  %1 = load ptr, ptr %0, align 8
  %2 = getelementptr inbounds %class.anon, ptr %this1, i32 0, i32 1
  %3 = load ptr, ptr %2, align 8
  %4 = load i32, ptr %3, align 4
  %5 = load ptr, ptr %p.addr, align 8
  %second = getelementptr inbounds %"struct.std::pair", ptr %5, i32 0, i32 1
  %6 = load ptr, ptr %second, align 8
  %7 = load ptr, ptr %p.addr, align 8
  %first = getelementptr inbounds %"struct.std::pair", ptr %7, i32 0, i32 0
  %8 = load i8, ptr %first, align 8
  %tobool = trunc i8 %8 to i1
  %9 = getelementptr inbounds %class.anon, ptr %this1, i32 0, i32 2
  %10 = load ptr, ptr %9, align 8
  %11 = load ptr, ptr %10, align 8
  %call = call noundef zeroext i1 @_ZN3euf17solve_context_eqs21is_disjunctively_safeEjP4exprbS2_(ptr noundef nonnull align 8 dereferenceable(152) %1, i32 noundef %4, ptr noundef %6, i1 noundef zeroext %tobool, ptr noundef %11)
  ret i1 %call
}

; Function Attrs: mustprogress uwtable
define linkonce_odr hidden noundef ptr @_ZNK6vectorISt4pairIbP4exprELb0EjE3endEv(ptr noundef nonnull align 8 dereferenceable(8) %this) #4 comdat align 2 {
entry:
  %this.addr = alloca ptr, align 8
  store ptr %this, ptr %this.addr, align 8
  %this1 = load ptr, ptr %this.addr, align 8
  %m_data = getelementptr inbounds %class.vector.44, ptr %this1, i32 0, i32 0
  %0 = load ptr, ptr %m_data, align 8
  %call = call noundef i32 @_ZNK6vectorISt4pairIbP4exprELb0EjE4sizeEv(ptr noundef nonnull align 8 dereferenceable(8) %this1)
  %idx.ext = zext i32 %call to i64
  %add.ptr = getelementptr inbounds %"struct.std::pair", ptr %0, i64 %idx.ext
  ret ptr %add.ptr
}

; Function Attrs: mustprogress nounwind uwtable
define linkonce_odr hidden noundef ptr @_ZNK6vectorISt4pairIbP4exprELb0EjE5beginEv(ptr noundef nonnull align 8 dereferenceable(8) %this) #5 comdat align 2 {
entry:
  %this.addr = alloca ptr, align 8
  store ptr %this, ptr %this.addr, align 8
  %this1 = load ptr, ptr %this.addr, align 8
  %m_data = getelementptr inbounds %class.vector.44, ptr %this1, i32 0, i32 0
  %0 = load ptr, ptr %m_data, align 8
  ret ptr %0
}

; Function Attrs: mustprogress nounwind uwtable
define linkonce_odr hidden void @_ZN6vectorISt4pairIbP4exprELb0EjEC2Ev(ptr noundef nonnull align 8 dereferenceable(8) %this) unnamed_addr #5 comdat align 2 {
entry:
  %this.addr = alloca ptr, align 8
  store ptr %this, ptr %this.addr, align 8
  %this1 = load ptr, ptr %this.addr, align 8
  %m_data = getelementptr inbounds %class.vector.44, ptr %this1, i32 0, i32 0
  store ptr null, ptr %m_data, align 8
  ret void
}

; Function Attrs: mustprogress uwtable
define linkonce_odr hidden noundef zeroext i1 @_ZNK8obj_markI4expr10bit_vector14default_t2uintIS0_EE9is_markedEPS0_(ptr noundef nonnull align 8 dereferenceable(24) %this, ptr noundef %obj) #4 comdat align 2 {
entry:
  %this.addr = alloca ptr, align 8
  %obj.addr = alloca ptr, align 8
  store ptr %this, ptr %this.addr, align 8
  store ptr %obj, ptr %obj.addr, align 8
  %this1 = load ptr, ptr %this.addr, align 8
  %0 = load ptr, ptr %obj.addr, align 8
  %call = call noundef zeroext i1 @_ZNK8obj_markI4expr10bit_vector14default_t2uintIS0_EE9is_markedERKS0_(ptr noundef nonnull align 8 dereferenceable(24) %this1, ptr noundef nonnull align 4 dereferenceable(16) %0)
  ret i1 %call
}

; Function Attrs: mustprogress uwtable
define internal noundef zeroext i1 @"_Z6all_ofI7svectorISt4pairIbP4exprEjEZN3euf17solve_context_eqs10is_safe_eqEjS3_bS3_E3$_0EbRKT_RKT0_"(ptr noundef nonnull align 8 dereferenceable(8) %set, ptr noundef nonnull align 8 dereferenceable(24) %p) #4 {
entry:
  %retval = alloca i1, align 1
  %set.addr = alloca ptr, align 8
  %p.addr = alloca ptr, align 8
  %__range1 = alloca ptr, align 8
  %__begin0 = alloca ptr, align 8
  %__end0 = alloca ptr, align 8
  %s = alloca ptr, align 8
  store ptr %set, ptr %set.addr, align 8
  store ptr %p, ptr %p.addr, align 8
  %0 = load ptr, ptr %set.addr, align 8
  store ptr %0, ptr %__range1, align 8
  %1 = load ptr, ptr %__range1, align 8
  %call = call noundef ptr @_ZNK6vectorISt4pairIbP4exprELb0EjE5beginEv(ptr noundef nonnull align 8 dereferenceable(8) %1)
  store ptr %call, ptr %__begin0, align 8
  %2 = load ptr, ptr %__range1, align 8
  %call1 = call noundef ptr @_ZNK6vectorISt4pairIbP4exprELb0EjE3endEv(ptr noundef nonnull align 8 dereferenceable(8) %2)
  store ptr %call1, ptr %__end0, align 8
  br label %for.cond

for.cond:                                         ; preds = %for.inc, %entry
  %3 = load ptr, ptr %__begin0, align 8
  %4 = load ptr, ptr %__end0, align 8
  %cmp = icmp ne ptr %3, %4
  br i1 %cmp, label %for.body, label %for.end

for.body:                                         ; preds = %for.cond
  %5 = load ptr, ptr %__begin0, align 8
  store ptr %5, ptr %s, align 8
  %6 = load ptr, ptr %p.addr, align 8
  %7 = load ptr, ptr %s, align 8
  %call2 = call noundef zeroext i1 @"_ZZN3euf17solve_context_eqs10is_safe_eqEjP4exprbS2_ENK3$_0clERKSt4pairIbS2_E"(ptr noundef nonnull align 8 dereferenceable(24) %6, ptr noundef nonnull align 8 dereferenceable(16) %7)
  br i1 %call2, label %if.end, label %if.then

if.then:                                          ; preds = %for.body
  store i1 false, ptr %retval, align 1
  br label %return

if.end:                                           ; preds = %for.body
  br label %for.inc

for.inc:                                          ; preds = %if.end
  %8 = load ptr, ptr %__begin0, align 8
  %incdec.ptr = getelementptr inbounds %"struct.std::pair", ptr %8, i32 1
  store ptr %incdec.ptr, ptr %__begin0, align 8
  br label %for.cond

for.end:                                          ; preds = %for.cond
  store i1 true, ptr %retval, align 1
  br label %return

return:                                           ; preds = %for.end, %if.then
  %9 = load i1, ptr %retval, align 1
  ret i1 %9
}

; Function Attrs: mustprogress nounwind uwtable
define linkonce_odr hidden void @_ZN7svectorISt4pairIbP4exprEjEC2Ev(ptr noundef nonnull align 8 dereferenceable(8) %this) unnamed_addr #5 comdat align 2 {
entry:
  %this.addr = alloca ptr, align 8
  store ptr %this, ptr %this.addr, align 8
  %this1 = load ptr, ptr %this.addr, align 8
  %0 = getelementptr inbounds i8, ptr %this1, i64 0
  call void @llvm.memset.p0.i64(ptr align 8 %0, i8 0, i64 8, i1 false)
  call void @_ZN6vectorISt4pairIbP4exprELb0EjEC2Ev(ptr noundef nonnull align 8 dereferenceable(8) %this1) #3
  ret void
}

; Function Attrs: mustprogress uwtable
define linkonce_odr hidden noundef zeroext i1 @_ZNK3euf17solve_context_eqs10contains_vEP4expr(ptr noundef nonnull align 8 dereferenceable(152) %this, ptr noundef %f) #4 comdat align 2 {
entry:
  %this.addr = alloca ptr, align 8
  %f.addr = alloca ptr, align 8
  store ptr %this, ptr %this.addr, align 8
  store ptr %f, ptr %f.addr, align 8
  %this1 = load ptr, ptr %this.addr, align 8
  %m_contains_v = getelementptr inbounds %"class.euf::solve_context_eqs", ptr %this1, i32 0, i32 7
  %0 = load ptr, ptr %f.addr, align 8
  %call = call noundef zeroext i1 @_ZNK8obj_markI4expr10bit_vector14default_t2uintIS0_EE9is_markedEPS0_(ptr noundef nonnull align 8 dereferenceable(24) %m_contains_v, ptr noundef %0)
  ret i1 %call
}

; Function Attrs: mustprogress uwtable
define hidden noundef zeroext i1 @_ZN3euf17solve_context_eqs10is_safe_eqEjP4exprbS2_(ptr noundef nonnull align 8 dereferenceable(152) %this, i32 noundef %recursion_depth, ptr noundef %f, i1 noundef zeroext %sign, ptr noundef %e) #4 align 2 personality ptr @__gxx_personality_v0 {
entry:
  %retval = alloca i1, align 1
  %this.addr = alloca ptr, align 8
  %recursion_depth.addr = alloca i32, align 4
  %f.addr = alloca ptr, align 8
  %sign.addr = alloca i8, align 1
  %e.addr = alloca ptr, align 8
  %conjuncts = alloca %class.svector.43, align 8
  %exn.slot = alloca ptr, align 8
  %ehselector.slot = alloca i32, align 4
  %cleanup.dest.slot = alloca i32, align 4
  %ref.tmp = alloca %class.anon, align 8
  store ptr %this, ptr %this.addr, align 8
  store i32 %recursion_depth, ptr %recursion_depth.addr, align 4
  store ptr %f, ptr %f.addr, align 8
  %frombool = zext i1 %sign to i8
  store i8 %frombool, ptr %sign.addr, align 1
  store ptr %e, ptr %e.addr, align 8
  %this1 = load ptr, ptr %this.addr, align 8
  %0 = load ptr, ptr %f.addr, align 8
  %call = call noundef zeroext i1 @_ZNK3euf17solve_context_eqs10contains_vEP4expr(ptr noundef nonnull align 8 dereferenceable(152) %this1, ptr noundef %0)
  br i1 %call, label %if.end, label %if.then

if.then:                                          ; preds = %entry
  store i1 true, ptr %retval, align 1
  br label %return

if.end:                                           ; preds = %entry
  call void @_ZN7svectorISt4pairIbP4exprEjEC2Ev(ptr noundef nonnull align 8 dereferenceable(8) %conjuncts)
  %1 = load ptr, ptr %f.addr, align 8
  %2 = load i8, ptr %sign.addr, align 1
  %tobool = trunc i8 %2 to i1
  %3 = load ptr, ptr %e.addr, align 8
  %call2 = invoke noundef zeroext i1 @_ZN3euf17solve_context_eqs22contains_conjunctivelyEP4exprbS2_R7svectorISt4pairIbS2_EjE(ptr noundef nonnull align 8 dereferenceable(152) %this1, ptr noundef %1, i1 noundef zeroext %tobool, ptr noundef %3, ptr noundef nonnull align 8 dereferenceable(8) %conjuncts)
          to label %invoke.cont unwind label %lpad

invoke.cont:                                      ; preds = %if.end
  br i1 %call2, label %if.then3, label %if.end4

if.then3:                                         ; preds = %invoke.cont
  store i1 true, ptr %retval, align 1
  store i32 1, ptr %cleanup.dest.slot, align 4
  br label %cleanup

lpad:                                             ; preds = %if.end6, %if.end
  %4 = landingpad { ptr, i32 }
          cleanup
  %5 = extractvalue { ptr, i32 } %4, 0
  store ptr %5, ptr %exn.slot, align 8
  %6 = extractvalue { ptr, i32 } %4, 1
  store i32 %6, ptr %ehselector.slot, align 4
  call void @_ZN7svectorISt4pairIbP4exprEjED2Ev(ptr noundef nonnull align 8 dereferenceable(8) %conjuncts) #3
  br label %eh.resume

if.end4:                                          ; preds = %invoke.cont
  %7 = load i32, ptr %recursion_depth.addr, align 4
  %cmp = icmp ugt i32 %7, 3
  br i1 %cmp, label %if.then5, label %if.end6

if.then5:                                         ; preds = %if.end4
  store i1 false, ptr %retval, align 1
  store i32 1, ptr %cleanup.dest.slot, align 4
  br label %cleanup

if.end6:                                          ; preds = %if.end4
  %8 = getelementptr inbounds %class.anon, ptr %ref.tmp, i32 0, i32 0
  store ptr %this1, ptr %8, align 8
  %9 = getelementptr inbounds %class.anon, ptr %ref.tmp, i32 0, i32 1
  store ptr %recursion_depth.addr, ptr %9, align 8
  %10 = getelementptr inbounds %class.anon, ptr %ref.tmp, i32 0, i32 2
  store ptr %e.addr, ptr %10, align 8
  %call8 = invoke noundef zeroext i1 @"_Z6all_ofI7svectorISt4pairIbP4exprEjEZN3euf17solve_context_eqs10is_safe_eqEjS3_bS3_E3$_0EbRKT_RKT0_"(ptr noundef nonnull align 8 dereferenceable(8) %conjuncts, ptr noundef nonnull align 8 dereferenceable(24) %ref.tmp)
          to label %invoke.cont7 unwind label %lpad

invoke.cont7:                                     ; preds = %if.end6
  store i1 %call8, ptr %retval, align 1
  store i32 1, ptr %cleanup.dest.slot, align 4
  br label %cleanup

cleanup:                                          ; preds = %invoke.cont7, %if.then5, %if.then3
  call void @_ZN7svectorISt4pairIbP4exprEjED2Ev(ptr noundef nonnull align 8 dereferenceable(8) %conjuncts) #3
  br label %return

return:                                           ; preds = %cleanup, %if.then
  %11 = load i1, ptr %retval, align 1
  ret i1 %11

eh.resume:                                        ; preds = %lpad
  %exn = load ptr, ptr %exn.slot, align 8
  %sel = load i32, ptr %ehselector.slot, align 4
  %lpad.val = insertvalue { ptr, i32 } poison, ptr %exn, 0
  %lpad.val9 = insertvalue { ptr, i32 } %lpad.val, i32 %sel, 1
  resume { ptr, i32 } %lpad.val9
}