; Function Attrs: mustprogress uwtable
define hidden noundef zeroext i1 @_ZN3euf17solve_context_eqs10is_safe_eqEjP4exprbS2_(ptr noundef nonnull align 8 dereferenceable(152) %this, i32 noundef %recursion_depth, ptr noundef %f, i1 noundef zeroext %sign, ptr noundef %e) local_unnamed_addr #5 align 2 personality ptr @__gxx_personality_v0 {
entry:
  %conjuncts = alloca %class.svector.43, align 8
  %0 = load i32, ptr %f, align 4
  %m_marks.i.i.i = getelementptr inbounds i8, ptr %this, i64 128
  %1 = load i32, ptr %m_marks.i.i.i, align 8
  %cmp.i.i.i = icmp ult i32 %0, %1
  br i1 %cmp.i.i.i, label %_ZNK3euf17solve_context_eqs10contains_vEP4expr.exit, label %return

_ZNK3euf17solve_context_eqs10contains_vEP4expr.exit: ; preds = %entry
  %m_data.i.i.i.i.i = getelementptr inbounds i8, ptr %this, i64 136
  %2 = load ptr, ptr %m_data.i.i.i.i.i, align 8
  %div1.i.i.i.i.i = lshr i32 %0, 5
  %idxprom.i.i.i.i.i = zext nneg i32 %div1.i.i.i.i.i to i64
  %arrayidx.i.i.i.i.i = getelementptr inbounds i32, ptr %2, i64 %idxprom.i.i.i.i.i
  %3 = load i32, ptr %arrayidx.i.i.i.i.i, align 4
  %rem.i.i.i.i.i = and i32 %0, 31
  %shl.i.i.i.i.i = shl nuw i32 1, %rem.i.i.i.i.i
  %and.i.i.i.i = and i32 %3, %shl.i.i.i.i.i
  %cmp.i.i.i.i.not = icmp eq i32 %and.i.i.i.i, 0
  br i1 %cmp.i.i.i.i.not, label %return, label %if.end

if.end:                                           ; preds = %_ZNK3euf17solve_context_eqs10contains_vEP4expr.exit
  store ptr null, ptr %conjuncts, align 8
  %call2 = invoke noundef zeroext i1 @_ZN3euf17solve_context_eqs22contains_conjunctivelyEP4exprbS2_R7svectorISt4pairIbS2_EjE(ptr noundef nonnull align 8 dereferenceable(152) %this, ptr noundef nonnull %f, i1 noundef zeroext %sign, ptr noundef %e, ptr noundef nonnull align 8 dereferenceable(8) %conjuncts)
          to label %invoke.cont unwind label %lpad.loopexit.split-lp

invoke.cont:                                      ; preds = %if.end
  br i1 %call2, label %cleanup, label %if.end4

lpad.loopexit:                                    ; preds = %for.body.i
  %lpad.loopexit8 = landingpad { ptr, i32 }
          cleanup
  br label %lpad

lpad.loopexit.split-lp:                           ; preds = %if.end
  %lpad.loopexit.split-lp9 = landingpad { ptr, i32 }
          cleanup
  br label %lpad

lpad:                                             ; preds = %lpad.loopexit.split-lp, %lpad.loopexit
  %lpad.phi = phi { ptr, i32 } [ %lpad.loopexit8, %lpad.loopexit ], [ %lpad.loopexit.split-lp9, %lpad.loopexit.split-lp ]
  call void @_ZN7svectorISt4pairIbP4exprEjED2Ev(ptr noundef nonnull align 8 dereferenceable(8) %conjuncts) #19
  resume { ptr, i32 } %lpad.phi

if.end4:                                          ; preds = %invoke.cont
  %cmp = icmp ugt i32 %recursion_depth, 3
  br i1 %cmp, label %cleanup, label %if.end6

if.end6:                                          ; preds = %if.end4
  %4 = load ptr, ptr %conjuncts, align 8
  %cmp.i.i = icmp eq ptr %4, null
  br i1 %cmp.i.i, label %return, label %call1.i.noexc

call1.i.noexc:                                    ; preds = %if.end6
  %arrayidx.i.i = getelementptr inbounds i8, ptr %4, i64 -4
  %5 = load i32, ptr %arrayidx.i.i, align 4
  %6 = zext i32 %5 to i64
  %add.ptr.i = getelementptr inbounds %"struct.std::pair", ptr %4, i64 %6
  %cmp.not.i10 = icmp eq i32 %5, 0
  br i1 %cmp.not.i10, label %cleanup, label %for.body.i

for.body.i:                                       ; preds = %call1.i.noexc, %call2.i.noexc
  %__begin0.0.i11 = phi ptr [ %incdec.ptr.i, %call2.i.noexc ], [ %4, %call1.i.noexc ]
  %second.i = getelementptr inbounds i8, ptr %__begin0.0.i11, i64 8
  %7 = load ptr, ptr %second.i, align 8
  %8 = load i8, ptr %__begin0.0.i11, align 8
  %9 = and i8 %8, 1
  %tobool.i = icmp ne i8 %9, 0
  %call.i45 = invoke noundef zeroext i1 @_ZN3euf17solve_context_eqs21is_disjunctively_safeEjP4exprbS2_(ptr noundef nonnull align 8 dereferenceable(152) %this, i32 noundef %recursion_depth, ptr noundef %7, i1 noundef zeroext %tobool.i, ptr noundef %e)
          to label %call2.i.noexc unwind label %lpad.loopexit

call2.i.noexc:                                    ; preds = %for.body.i
  %incdec.ptr.i = getelementptr inbounds i8, ptr %__begin0.0.i11, i64 16
  %cmp.not.i = icmp ne ptr %incdec.ptr.i, %add.ptr.i
  %or.cond.not = select i1 %call.i45, i1 %cmp.not.i, i1 false
  br i1 %or.cond.not, label %for.body.i, label %cleanup

cleanup:                                          ; preds = %call2.i.noexc, %call1.i.noexc, %if.end4, %invoke.cont
  %retval.0.ph = phi i1 [ true, %call1.i.noexc ], [ false, %if.end4 ], [ true, %invoke.cont ], [ %call.i45, %call2.i.noexc ]
  %.pr = load ptr, ptr %conjuncts, align 8
  %tobool.not.i.i.i = icmp eq ptr %.pr, null
  br i1 %tobool.not.i.i.i, label %return, label %if.then.i.i.i

if.then.i.i.i:                                    ; preds = %cleanup
  %add.ptr.i.i.i.i = getelementptr inbounds i8, ptr %.pr, i64 -8
  invoke void @_ZN6memory10deallocateEPv(ptr noundef nonnull %add.ptr.i.i.i.i)
          to label %return unwind label %terminate.lpad.i.i

terminate.lpad.i.i:                               ; preds = %if.then.i.i.i
  %10 = landingpad { ptr, i32 }
          catch ptr null
  %11 = extractvalue { ptr, i32 } %10, 0
  call void @__clang_call_terminate(ptr %11) #18
  unreachable

return:                                           ; preds = %if.end6, %entry, %if.then.i.i.i, %cleanup, %_ZNK3euf17solve_context_eqs10contains_vEP4expr.exit
  %retval.1 = phi i1 [ true, %_ZNK3euf17solve_context_eqs10contains_vEP4expr.exit ], [ %retval.0.ph, %cleanup ], [ %retval.0.ph, %if.then.i.i.i ], [ true, %entry ], [ true, %if.end6 ]
  ret i1 %retval.1
}